; Function Attrs: null_pointer_is_valid sspstrong uwtable
define internal i32 @frstrans_dissect_RequestVersionVector_response(ptr noundef %0, i32 noundef %1, ptr noundef %2, ptr noundef %3, ptr noundef initializes((72, 80)) %4, ptr noundef %5) #0 {
  %7 = alloca i32, align 4
  call void @llvm.lifetime.start.p0(i64 4, ptr nonnull %7) #4
  %8 = getelementptr inbounds nuw i8, ptr %4, i64 72
  store ptr @.str.220, ptr %8, align 8
  %9 = load i32, ptr @hf_frstrans_werror, align 4
  %10 = call i32 @dissect_ndr_uint32(ptr noundef %0, i32 noundef %1, ptr noundef %2, ptr noundef %3, ptr noundef %4, ptr noundef %5, i32 noundef %9, ptr noundef nonnull %7)
  %11 = load i32, ptr %7, align 4
  %.not = icmp eq i32 %11, 0
  br i1 %.not, label %16, label %12

12:                                               ; preds = %6
  %13 = getelementptr inbounds nuw i8, ptr %2, i64 8
  %14 = load ptr, ptr %13, align 8
  %15 = call ptr @val_to_str_ext(i32 noundef %11, ptr noundef nonnull @WERR_errors_ext, ptr noundef nonnull @.str.235)
  call void (ptr, i32, ptr, ...) @col_append_fstr(ptr noundef %14, i32 noundef 25, ptr noundef nonnull @.str.234, ptr noundef %15)
  br label %16

16:                                               ; preds = %12, %6
  call void @llvm.lifetime.end.p0(i64 4, ptr nonnull %7) #4
  ret i32 %10
}